	.text
	.file	"main"
	.globl	main
	.align	16, 0x90
	.type	main,@function
main:                                   # @main
	.cfi_startproc
# BB#0:                                 # %entry
	pushq	%rbp
.Ltmp0:
	.cfi_def_cfa_offset 16
	pushq	%rbx
.Ltmp1:
	.cfi_def_cfa_offset 24
	subq	$24, %rsp
.Ltmp2:
	.cfi_def_cfa_offset 48
.Ltmp3:
	.cfi_offset %rbx, -24
.Ltmp4:
	.cfi_offset %rbp, -16
	movl	$1, 8(%rsp)
	movl	$3, 12(%rsp)
	movl	$5, 16(%rsp)
	movl	$11, %ebp
	movl	12(%rsp), %ebx
	addl	$10, %ebx
	jmp	.LBB0_1
	.align	16, 0x90
.LBB0_2:                                # %while.body
                                        #   in Loop: Header=BB0_1 Depth=1
	movl	$.L.str, %edi
	xorl	%eax, %eax
	movl	%ebx, %esi
	callq	printf
.LBB0_1:                                # %while.cond
                                        # =>This Inner Loop Header: Depth=1
	decl	%ebp
	testl	%ebp, %ebp
	jg	.LBB0_2
# BB#3:                                 # %while.end
	movl	16(%rsp), %esi
	movl	$.L.str, %edi
	xorl	%eax, %eax
	callq	printf
	xorl	%eax, %eax
	addq	$24, %rsp
	popq	%rbx
	popq	%rbp
	retq
.Ltmp5:
	.size	main, .Ltmp5-main
	.cfi_endproc

	.type	.L.str,@object          # @.str
	.section	.rodata.str1.1,"aMS",@progbits,1
.L.str:
	.asciz	"%d\n"
	.size	.L.str, 4


	.section	".note.GNU-stack","",@progbits
